target datalayout = "e-m:e-p270:32:32-p271:32:32-p272:64:64-i64:64-i128:128-f80:128-n8:16:32:64-S128"
target triple = "x86_64-pc-linux-gnu"

%struct.WOLFSSL = type <{ ptr, ptr, ptr, ptr, [48 x i8], [48 x i8], ptr, ptr, ptr, ptr, ptr, ptr, ptr, ptr, ptr, ptr, ptr, ptr, ptr, i32, [4 x i8], %struct.WOLFSSL_CIPHER, ptr, %struct.Ciphers, %struct.Ciphers, [8 x i8], %struct.Buffers, ptr, ptr, %struct.WOLFSSL_ALERT_HISTORY, %struct.WOLFSSL_ALERT, i32, i32, i32, i32, i32, i32, i32, i16, [2 x i8], i32, i8, %struct.RecordLayerHeader, %struct.MsgsReceived, %struct.ProtocolVersion, %struct.ProtocolVersion, %struct.CipherSpecs, [2 x i8], %struct.Keys, %struct.Options, ptr, i8, i8, i16, [10 x i16], i8, i8, i16, i16, [38 x i8], i32, i32, [4 x i8], ptr, i8, i8, [6 x i8], ptr, ptr, i16, i8, i8, i32, i8, [3 x i8], i32, %struct.OneTimeAuth, ptr }>
%struct.WOLFSSL_CIPHER = type { i8, i8, ptr }
%struct.Ciphers = type { ptr, ptr, ptr, ptr, i8, i8 }
%struct.Buffers = type { %struct.bufferStatic, %struct.bufferStatic, %struct.WOLFSSL_BUFFER_INFO, %struct.WOLFSSL_BUFFER_INFO, %struct.WOLFSSL_BUFFER_INFO, %struct.WOLFSSL_BUFFER_INFO, i32, i32, i8, i8, i8, i8, %struct.WOLFSSL_BUFFER_INFO, %struct.WOLFSSL_BUFFER_INFO, %struct.WOLFSSL_BUFFER_INFO, %struct.WOLFSSL_BUFFER_INFO, ptr, ptr, ptr, i8, i8, i32, i32, ptr, i32, [1 x ptr] }
%struct.bufferStatic = type { [5 x i8], ptr, i32, i32, i32, i8, i8 }
%struct.WOLFSSL_BUFFER_INFO = type { ptr, i32 }
%struct.WOLFSSL_ALERT_HISTORY = type { %struct.WOLFSSL_ALERT, %struct.WOLFSSL_ALERT }
%struct.WOLFSSL_ALERT = type { i32, i32 }
%struct.RecordLayerHeader = type { i8, i8, i8, [2 x i8] }
%struct.MsgsReceived = type { i32 }
%struct.ProtocolVersion = type { i8, i8 }
%struct.CipherSpecs = type { i16, i16, i16, i16, i8, i8, i8, i8, i8, i8, i8, i8 }
%struct.Keys = type { [64 x i8], [64 x i8], [32 x i8], [32 x i8], [16 x i8], [16 x i8], [8 x i8], [12 x i8], [12 x i8], i32, i32, i32, i32, i32, i32, i8, i8, i8, i8 }
%struct.Options = type { i64, i64, i8, i8, i8, i8, i8, i8, i8, i8, i8, i8, i8, i8, i8, i8, i8, i8, i8, i8, i8, i8, i8, i16, i16, i16, i16, i16, i8 }
%struct.OneTimeAuth = type { ptr, i8 }

; Function Attrs: nounwind uwtable
define i32 @RetrySendAlert(ptr noundef %0) #0 {
  %2 = alloca i32, align 4
  %3 = alloca ptr, align 8
  %4 = alloca i32, align 4
  %5 = alloca i32, align 4
  %6 = alloca i32, align 4
  %7 = alloca i32, align 4
  store ptr %0, ptr %3, align 8, !tbaa !3
  call void @llvm.lifetime.start.p0(i64 4, ptr %4) #9
  store i32 0, ptr %4, align 4, !tbaa !47
  call void @llvm.lifetime.start.p0(i64 4, ptr %5) #9
  call void @llvm.lifetime.start.p0(i64 4, ptr %6) #9
  br label %8

8:                                                ; preds = %1
  br label %9

9:                                                ; preds = %8
  br label %10

10:                                               ; preds = %9
  %11 = load ptr, ptr %3, align 8, !tbaa !3
  %12 = icmp eq ptr %11, null
  br i1 %12, label %13, label %14

13:                                               ; preds = %10
  store i32 -173, ptr %2, align 4
  store i32 1, ptr %7, align 4
  br label %38

14:                                               ; preds = %10
  %15 = load ptr, ptr %3, align 8, !tbaa !3
  %16 = getelementptr inbounds nuw %struct.WOLFSSL, ptr %15, i32 0, i32 30
  %17 = getelementptr inbounds nuw %struct.WOLFSSL_ALERT, ptr %16, i32 0, i32 0
  %18 = load i32, ptr %17, align 16, !tbaa !279
  store i32 %18, ptr %5, align 4, !tbaa !47
  %19 = load ptr, ptr %3, align 8, !tbaa !3
  %20 = getelementptr inbounds nuw %struct.WOLFSSL, ptr %19, i32 0, i32 30
  %21 = getelementptr inbounds nuw %struct.WOLFSSL_ALERT, ptr %20, i32 0, i32 1
  %22 = load i32, ptr %21, align 4, !tbaa !278
  store i32 %22, ptr %6, align 4, !tbaa !47
  %23 = load i32, ptr %6, align 4, !tbaa !47
  %24 = icmp eq i32 %23, 0
  br i1 %24, label %25, label %26

25:                                               ; preds = %14
  store i32 0, ptr %2, align 4
  store i32 1, ptr %7, align 4
  br label %38

26:                                               ; preds = %14
  %27 = load ptr, ptr %3, align 8, !tbaa !3
  %28 = getelementptr inbounds nuw %struct.WOLFSSL, ptr %27, i32 0, i32 30
  %29 = getelementptr inbounds nuw %struct.WOLFSSL_ALERT, ptr %28, i32 0, i32 0
  store i32 0, ptr %29, align 16, !tbaa !279
  %30 = load ptr, ptr %3, align 8, !tbaa !3
  %31 = getelementptr inbounds nuw %struct.WOLFSSL, ptr %30, i32 0, i32 30
  %32 = getelementptr inbounds nuw %struct.WOLFSSL_ALERT, ptr %31, i32 0, i32 1
  store i32 0, ptr %32, align 4, !tbaa !278
  %33 = load ptr, ptr %3, align 8, !tbaa !3
  %34 = load i32, ptr %6, align 4, !tbaa !47
  %35 = load i32, ptr %5, align 4, !tbaa !47
  %36 = call i32 @SendAlert_ex(ptr noundef %33, i32 noundef %34, i32 noundef %35)
  store i32 %36, ptr %4, align 4, !tbaa !47
  %37 = load i32, ptr %4, align 4, !tbaa !47
  store i32 %37, ptr %2, align 4
  store i32 1, ptr %7, align 4
  br label %38

38:                                               ; preds = %26, %25, %13
  call void @llvm.lifetime.end.p0(i64 4, ptr %6) #9
  call void @llvm.lifetime.end.p0(i64 4, ptr %5) #9
  call void @llvm.lifetime.end.p0(i64 4, ptr %4) #9
  %39 = load i32, ptr %2, align 4
  ret i32 %39
}

; Function Attrs: nounwind uwtable
define i32 @IsEncryptionOn(ptr noundef %0, i32 noundef %1) #0 {
  %3 = alloca ptr, align 8
  %4 = alloca i32, align 4
  store ptr %0, ptr %3, align 8, !tbaa !3
  store i32 %1, ptr %4, align 4, !tbaa !47
  %5 = load ptr, ptr %3, align 8, !tbaa !3
  %6 = getelementptr inbounds nuw %struct.WOLFSSL, ptr %5, i32 0, i32 48
  %7 = getelementptr inbounds nuw %struct.Keys, ptr %6, i32 0, i32 15
  %8 = load i8, ptr %7, align 4, !tbaa !48
  %9 = zext i8 %8 to i32
  %10 = icmp ne i32 %9, 0
  br i1 %10, label %11, label %29

11:                                               ; preds = %2
  %12 = load i32, ptr %4, align 4, !tbaa !47
  %13 = icmp ne i32 %12, 0
  br i1 %13, label %14, label %20

14:                                               ; preds = %11
  %15 = load ptr, ptr %3, align 8, !tbaa !3
  %16 = getelementptr inbounds nuw %struct.WOLFSSL, ptr %15, i32 0, i32 23
  %17 = getelementptr inbounds nuw %struct.Ciphers, ptr %16, i32 0, i32 5
  %18 = load i8, ptr %17, align 1, !tbaa !49
  %19 = zext i8 %18 to i32
  br label %26

20:                                               ; preds = %11
  %21 = load ptr, ptr %3, align 8, !tbaa !3
  %22 = getelementptr inbounds nuw %struct.WOLFSSL, ptr %21, i32 0, i32 24
  %23 = getelementptr inbounds nuw %struct.Ciphers, ptr %22, i32 0, i32 5
  %24 = load i8, ptr %23, align 1, !tbaa !50
  %25 = zext i8 %24 to i32
  br label %26

26:                                               ; preds = %20, %14
  %27 = phi i32 [ %19, %14 ], [ %25, %20 ]
  %28 = icmp ne i32 %27, 0
  br label %29

29:                                               ; preds = %26, %2
  %30 = phi i1 [ false, %2 ], [ %28, %26 ]
  %31 = zext i1 %30 to i32
  ret i32 %31
}

; Function Attrs: nounwind uwtable
define i32 @SendAlert(ptr noundef %0, i32 noundef %1, i32 noundef %2) #0 {
  %4 = alloca i32, align 4
  %5 = alloca ptr, align 8
  %6 = alloca i32, align 4
  %7 = alloca i32, align 4
  %8 = alloca i32, align 4
  %9 = alloca i32, align 4
  store ptr %0, ptr %5, align 8, !tbaa !3
  store i32 %1, ptr %6, align 4, !tbaa !47
  store i32 %2, ptr %7, align 4, !tbaa !47
  call void @llvm.lifetime.start.p0(i64 4, ptr %8) #9
  store i32 0, ptr %8, align 4, !tbaa !47
  br label %10

10:                                               ; preds = %3
  br label %11

11:                                               ; preds = %10
  br label %12

12:                                               ; preds = %11
  %13 = load ptr, ptr %5, align 8, !tbaa !3
  %14 = icmp eq ptr %13, null
  br i1 %14, label %15, label %16

15:                                               ; preds = %12
  store i32 -173, ptr %4, align 4
  store i32 1, ptr %9, align 4
  br label %60

16:                                               ; preds = %12
  %17 = load ptr, ptr %5, align 8, !tbaa !3
  %18 = getelementptr inbounds nuw %struct.WOLFSSL, ptr %17, i32 0, i32 30
  %19 = getelementptr inbounds nuw %struct.WOLFSSL_ALERT, ptr %18, i32 0, i32 1
  %20 = load i32, ptr %19, align 4, !tbaa !278
  %21 = icmp ne i32 %20, 0
  br i1 %21, label %22, label %54

22:                                               ; preds = %16
  %23 = load ptr, ptr %5, align 8, !tbaa !3
  %24 = call i32 @RetrySendAlert(ptr noundef %23)
  store i32 %24, ptr %8, align 4, !tbaa !47
  %25 = load i32, ptr %8, align 4, !tbaa !47
  %26 = icmp ne i32 %25, 0
  br i1 %26, label %27, label %53

27:                                               ; preds = %22
  %28 = load ptr, ptr %5, align 8, !tbaa !3
  %29 = getelementptr inbounds nuw %struct.WOLFSSL, ptr %28, i32 0, i32 30
  %30 = getelementptr inbounds nuw %struct.WOLFSSL_ALERT, ptr %29, i32 0, i32 1
  %31 = load i32, ptr %30, align 4, !tbaa !278
  %32 = icmp eq i32 %31, 0
  br i1 %32, label %42, label %33

33:                                               ; preds = %27
  %34 = load ptr, ptr %5, align 8, !tbaa !3
  %35 = getelementptr inbounds nuw %struct.WOLFSSL, ptr %34, i32 0, i32 30
  %36 = getelementptr inbounds nuw %struct.WOLFSSL_ALERT, ptr %35, i32 0, i32 1
  %37 = load i32, ptr %36, align 4, !tbaa !278
  %38 = icmp ne i32 %37, 2
  br i1 %38, label %39, label %51

39:                                               ; preds = %33
  %40 = load i32, ptr %6, align 4, !tbaa !47
  %41 = icmp eq i32 %40, 2
  br i1 %41, label %42, label %51

42:                                               ; preds = %39, %27
  %43 = load i32, ptr %7, align 4, !tbaa !47
  %44 = load ptr, ptr %5, align 8, !tbaa !3
  %45 = getelementptr inbounds nuw %struct.WOLFSSL, ptr %44, i32 0, i32 30
  %46 = getelementptr inbounds nuw %struct.WOLFSSL_ALERT, ptr %45, i32 0, i32 0
  store i32 %43, ptr %46, align 16, !tbaa !279
  %47 = load i32, ptr %6, align 4, !tbaa !47
  %48 = load ptr, ptr %5, align 8, !tbaa !3
  %49 = getelementptr inbounds nuw %struct.WOLFSSL, ptr %48, i32 0, i32 30
  %50 = getelementptr inbounds nuw %struct.WOLFSSL_ALERT, ptr %49, i32 0, i32 1
  store i32 %47, ptr %50, align 4, !tbaa !278
  br label %51

51:                                               ; preds = %42, %39, %33
  %52 = load i32, ptr %8, align 4, !tbaa !47
  store i32 %52, ptr %4, align 4
  store i32 1, ptr %9, align 4
  br label %60

53:                                               ; preds = %22
  br label %54

54:                                               ; preds = %53, %16
  %55 = load ptr, ptr %5, align 8, !tbaa !3
  %56 = load i32, ptr %6, align 4, !tbaa !47
  %57 = load i32, ptr %7, align 4, !tbaa !47
  %58 = call i32 @SendAlert_ex(ptr noundef %55, i32 noundef %56, i32 noundef %57)
  store i32 %58, ptr %8, align 4, !tbaa !47
  %59 = load i32, ptr %8, align 4, !tbaa !47
  store i32 %59, ptr %4, align 4
  store i32 1, ptr %9, align 4
  br label %60

60:                                               ; preds = %54, %51, %15
  call void @llvm.lifetime.end.p0(i64 4, ptr %8) #9
  %61 = load i32, ptr %4, align 4
  ret i32 %61
}

; Function Attrs: inlinehint nounwind uwtable
define internal void @c24to32(ptr noundef %0, ptr noundef %1) #5 {
  %3 = alloca ptr, align 8
  %4 = alloca ptr, align 8
  store ptr %0, ptr %3, align 8, !tbaa !89
  store ptr %1, ptr %4, align 8, !tbaa !143
  %5 = load ptr, ptr %3, align 8, !tbaa !89
  %6 = getelementptr inbounds i8, ptr %5, i64 0
  %7 = load i8, ptr %6, align 1, !tbaa !54
  %8 = zext i8 %7 to i32
  %9 = shl i32 %8, 16
  %10 = load ptr, ptr %3, align 8, !tbaa !89
  %11 = getelementptr inbounds i8, ptr %10, i64 1
  %12 = load i8, ptr %11, align 1, !tbaa !54
  %13 = zext i8 %12 to i32
  %14 = shl i32 %13, 8
  %15 = or i32 %9, %14
  %16 = load ptr, ptr %3, align 8, !tbaa !89
  %17 = getelementptr inbounds i8, ptr %16, i64 2
  %18 = load i8, ptr %17, align 1, !tbaa !54
  %19 = zext i8 %18 to i32
  %20 = or i32 %15, %19
  %21 = load ptr, ptr %4, align 8, !tbaa !143
  store i32 %20, ptr %21, align 4, !tbaa !47
  ret void
}

; Function Attrs: nounwind uwtable
define internal i32 @DoCertificateStatus(ptr noundef %0, ptr noundef %1, ptr noundef %2, i32 noundef %3) #0 {
  %5 = alloca i32, align 4
  %6 = alloca ptr, align 8
  %7 = alloca ptr, align 8
  %8 = alloca ptr, align 8
  %9 = alloca i32, align 4
  %10 = alloca i32, align 4
  %11 = alloca i8, align 1
  %12 = alloca i32, align 4
  %13 = alloca i32, align 4
  %14 = alloca i32, align 4
  store ptr %0, ptr %6, align 8, !tbaa !3
  store ptr %1, ptr %7, align 8, !tbaa !89
  store ptr %2, ptr %8, align 8, !tbaa !143
  store i32 %3, ptr %9, align 4, !tbaa !47
  call void @llvm.lifetime.start.p0(i64 4, ptr %10) #9
  store i32 0, ptr %10, align 4, !tbaa !47
  call void @llvm.lifetime.start.p0(i64 1, ptr %11) #9
  call void @llvm.lifetime.start.p0(i64 4, ptr %12) #9
  call void @llvm.lifetime.start.p0(i64 4, ptr %13) #9
  store i32 0, ptr %13, align 4, !tbaa !47
  br label %15

15:                                               ; preds = %4
  br label %16

16:                                               ; preds = %15
  br label %17

17:                                               ; preds = %16
  br label %18

18:                                               ; preds = %17
  br label %19

19:                                               ; preds = %18
  br label %20

20:                                               ; preds = %19
  %21 = load i32, ptr %9, align 4, !tbaa !47
  %22 = icmp ult i32 %21, 4
  br i1 %22, label %23, label %24

23:                                               ; preds = %20
  store i32 -328, ptr %5, align 4
  store i32 1, ptr %14, align 4
  br label %90

24:                                               ; preds = %20
  %25 = load ptr, ptr %7, align 8, !tbaa !89
  %26 = load ptr, ptr %8, align 8, !tbaa !143
  %27 = load i32, ptr %26, align 4, !tbaa !47
  %28 = add i32 %27, 1
  store i32 %28, ptr %26, align 4, !tbaa !47
  %29 = zext i32 %27 to i64
  %30 = getelementptr inbounds nuw i8, ptr %25, i64 %29
  %31 = load i8, ptr %30, align 1, !tbaa !54
  store i8 %31, ptr %11, align 1, !tbaa !54
  %32 = load ptr, ptr %7, align 8, !tbaa !89
  %33 = load ptr, ptr %8, align 8, !tbaa !143
  %34 = load i32, ptr %33, align 4, !tbaa !47
  %35 = zext i32 %34 to i64
  %36 = getelementptr inbounds nuw i8, ptr %32, i64 %35
  call void @c24to32(ptr noundef %36, ptr noundef %12)
  %37 = load ptr, ptr %8, align 8, !tbaa !143
  %38 = load i32, ptr %37, align 4, !tbaa !47
  %39 = add i32 %38, 3
  store i32 %39, ptr %37, align 4, !tbaa !47
  %40 = load i32, ptr %9, align 4, !tbaa !47
  %41 = load i32, ptr %12, align 4, !tbaa !47
  %42 = add i32 4, %41
  %43 = icmp ne i32 %40, %42
  br i1 %43, label %44, label %45

44:                                               ; preds = %24
  store i32 -328, ptr %5, align 4
  store i32 1, ptr %14, align 4
  br label %90

45:                                               ; preds = %24
  %46 = load i8, ptr %11, align 1, !tbaa !54
  %47 = zext i8 %46 to i32
  switch i32 %47, label %48 [
  ]

48:                                               ; preds = %45
  store i32 -328, ptr %10, align 4, !tbaa !47
  br label %49

49:                                               ; preds = %48
  %50 = load i32, ptr %13, align 4, !tbaa !47
  %51 = icmp eq i32 %50, 0
  br i1 %51, label %52, label %53

52:                                               ; preds = %49
  store i32 -406, ptr %10, align 4, !tbaa !47
  br label %53

53:                                               ; preds = %52, %49
  %54 = load i32, ptr %10, align 4, !tbaa !47
  %55 = icmp ne i32 %54, 0
  br i1 %55, label %56, label %59

56:                                               ; preds = %53
  %57 = load ptr, ptr %6, align 8, !tbaa !3
  %58 = call i32 @SendAlert(ptr noundef %57, i32 noundef 2, i32 noundef 113)
  br label %59

59:                                               ; preds = %56, %53
  %60 = load ptr, ptr %6, align 8, !tbaa !3
  %61 = call i32 @IsEncryptionOn(ptr noundef %60, i32 noundef 0)
  %62 = icmp ne i32 %61, 0
  br i1 %62, label %63, label %82

63:                                               ; preds = %59
  %64 = load ptr, ptr %8, align 8, !tbaa !143
  %65 = load i32, ptr %64, align 4, !tbaa !47
  %66 = load ptr, ptr %6, align 8, !tbaa !3
  %67 = getelementptr inbounds nuw %struct.WOLFSSL, ptr %66, i32 0, i32 48
  %68 = getelementptr inbounds nuw %struct.Keys, ptr %67, i32 0, i32 14
  %69 = load i32, ptr %68, align 4, !tbaa !348
  %70 = add i32 %65, %69
  %71 = load i32, ptr %9, align 4, !tbaa !47
  %72 = icmp ugt i32 %70, %71
  br i1 %72, label %73, label %74

73:                                               ; preds = %63
  store i32 -132, ptr %5, align 4
  store i32 1, ptr %14, align 4
  br label %90

74:                                               ; preds = %63
  %75 = load ptr, ptr %6, align 8, !tbaa !3
  %76 = getelementptr inbounds nuw %struct.WOLFSSL, ptr %75, i32 0, i32 48
  %77 = getelementptr inbounds nuw %struct.Keys, ptr %76, i32 0, i32 14
  %78 = load i32, ptr %77, align 4, !tbaa !348
  %79 = load ptr, ptr %8, align 8, !tbaa !143
  %80 = load i32, ptr %79, align 4, !tbaa !47
  %81 = add i32 %80, %78
  store i32 %81, ptr %79, align 4, !tbaa !47
  br label %82

82:                                               ; preds = %74, %59
  br label %83

83:                                               ; preds = %82
  br label %84

84:                                               ; preds = %83
  br label %85

85:                                               ; preds = %84
  br label %86

86:                                               ; preds = %85
  br label %87

87:                                               ; preds = %86
  br label %88

88:                                               ; preds = %87
  %89 = load i32, ptr %10, align 4, !tbaa !47
  store i32 %89, ptr %5, align 4
  store i32 1, ptr %14, align 4
  br label %90

90:                                               ; preds = %88, %73, %44, %23
  call void @llvm.lifetime.end.p0(i64 4, ptr %13) #9
  call void @llvm.lifetime.end.p0(i64 4, ptr %12) #9
  call void @llvm.lifetime.end.p0(i64 1, ptr %11) #9
  call void @llvm.lifetime.end.p0(i64 4, ptr %10) #9
  %91 = load i32, ptr %5, align 4
  ret i32 %91
}