; Function Attrs: nounwind uwtable
define internal fastcc range(i32 -406, -131) i32 @DoCertificateStatus(ptr noundef %0, ptr noundef readonly captures(none) %1, ptr noundef captures(none) %2, i32 noundef %3) unnamed_addr #5 {
  %5 = icmp ult i32 %3, 4
  br i1 %5, label %IsEncryptionOn.exit.thread, label %6

6:                                                ; preds = %4
  %7 = load i32, ptr %2, align 4, !tbaa !49
  %8 = add i32 %7, 1
  store i32 %8, ptr %2, align 4, !tbaa !49
  %9 = zext i32 %8 to i64
  %10 = getelementptr inbounds nuw i8, ptr %1, i64 %9
  %11 = load i8, ptr %10, align 1, !tbaa !45
  %12 = zext i8 %11 to i32
  %13 = shl nuw nsw i32 %12, 16
  %14 = getelementptr inbounds nuw i8, ptr %10, i64 1
  %15 = load i8, ptr %14, align 1, !tbaa !45
  %16 = zext i8 %15 to i32
  %17 = shl nuw nsw i32 %16, 8
  %18 = or disjoint i32 %17, %13
  %19 = getelementptr inbounds nuw i8, ptr %10, i64 2
  %20 = load i8, ptr %19, align 1, !tbaa !45
  %21 = zext i8 %20 to i32
  %22 = or disjoint i32 %18, %21
  %23 = add i32 %7, 4
  store i32 %23, ptr %2, align 4, !tbaa !49
  %24 = add nuw nsw i32 %22, 4
  %.not = icmp eq i32 %3, %24
  br i1 %.not, label %25, label %IsEncryptionOn.exit.thread

25:                                               ; preds = %6
  %26 = icmp eq ptr %0, null
  br i1 %26, label %SendAlert.exit, label %27

27:                                               ; preds = %25
  %28 = getelementptr inbounds nuw i8, ptr %0, i64 656
  %29 = getelementptr inbounds nuw i8, ptr %0, i64 660
  %30 = load i32, ptr %29, align 4, !tbaa !235
  %.not.i = icmp eq i32 %30, 0
  br i1 %.not.i, label %36, label %RetrySendAlert.exit.i

RetrySendAlert.exit.i:                            ; preds = %27
  %31 = load i32, ptr %28, align 16, !tbaa !236
  store i32 0, ptr %28, align 16, !tbaa !236
  store i32 0, ptr %29, align 4, !tbaa !235
  %32 = tail call fastcc i32 @SendAlert_ex(ptr noundef nonnull %0, i32 noundef %30, i32 noundef %31)
  %.not20.i = icmp eq i32 %32, 0
  br i1 %.not20.i, label %36, label %33

33:                                               ; preds = %RetrySendAlert.exit.i
  %34 = load i32, ptr %29, align 4, !tbaa !235
  %cond = icmp eq i32 %34, 2
  br i1 %cond, label %SendAlert.exit, label %35

35:                                               ; preds = %33
  store i32 113, ptr %28, align 16, !tbaa !236
  store i32 2, ptr %29, align 4, !tbaa !235
  br label %SendAlert.exit

36:                                               ; preds = %RetrySendAlert.exit.i, %27
  %37 = tail call fastcc i32 @SendAlert_ex(ptr noundef %0, i32 noundef 2, i32 noundef 113)
  br label %SendAlert.exit

SendAlert.exit:                                   ; preds = %33, %25, %35, %36
  %38 = getelementptr inbounds nuw i8, ptr %0, i64 1012
  %39 = load i8, ptr %38, align 4, !tbaa !44
  %.not.i20 = icmp eq i8 %39, 0
  br i1 %.not.i20, label %IsEncryptionOn.exit.thread, label %IsEncryptionOn.exit

IsEncryptionOn.exit:                              ; preds = %SendAlert.exit
  %.in.in.i = getelementptr inbounds nuw i8, ptr %0, i64 337
  %.in.i = load i8, ptr %.in.in.i, align 1, !tbaa !45
  %.not22 = icmp eq i8 %.in.i, 0
  br i1 %.not22, label %IsEncryptionOn.exit.thread, label %40

40:                                               ; preds = %IsEncryptionOn.exit
  %41 = load i32, ptr %2, align 4, !tbaa !49
  %42 = getelementptr inbounds nuw i8, ptr %0, i64 1008
  %43 = load i32, ptr %42, align 4, !tbaa !232
  %44 = add i32 %43, %41
  %45 = icmp ugt i32 %44, %3
  br i1 %45, label %IsEncryptionOn.exit.thread, label %46

46:                                               ; preds = %40
  store i32 %44, ptr %2, align 4, !tbaa !49
  br label %IsEncryptionOn.exit.thread

IsEncryptionOn.exit.thread:                       ; preds = %SendAlert.exit, %IsEncryptionOn.exit, %46, %40, %6, %4
  %.0 = phi i32 [ -328, %4 ], [ -328, %6 ], [ -132, %40 ], [ -406, %46 ], [ -406, %IsEncryptionOn.exit ], [ -406, %SendAlert.exit ]
  ret i32 %.0
}